target datalayout = "e-m:e-p270:32:32-p271:32:32-p272:64:64-i64:64-i128:128-f80:128-n8:16:32:64-S128"
target triple = "x86_64-pc-linux-gnu"

%struct.lconv = type { ptr, ptr, ptr, ptr, ptr, ptr, ptr, ptr, ptr, ptr, i8, i8, i8, i8, i8, i8, i8, i8, i8, i8, i8, i8, i8, i8 }
%struct.epan_column_info = type { ptr, i32, ptr, ptr, ptr, %struct.col_expr_t, i32, ptr }
%struct.col_expr_t = type { ptr, ptr }
%struct.col_item_t = type { i32, ptr, ptr, ptr, i32, ptr, ptr, ptr, ptr, i32, i32, i32 }

@col_decimal_point = internal global ptr null, align 8
@.str = private unnamed_addr constant [39 x i8] c"(?:^ *| *\\|\\| *| +or +| *$)(?![^(]*\\))\00", align 1

; Function Attrs: nounwind uwtable
define void @col_setup(ptr noundef %0, i32 noundef %1) #0 {
  %3 = alloca ptr, align 8
  %4 = alloca i32, align 4
  %5 = alloca i32, align 4
  store ptr %0, ptr %3, align 8
  store i32 %1, ptr %4, align 4
  %6 = call ptr @localeconv() #7
  %7 = getelementptr inbounds %struct.lconv, ptr %6, i32 0, i32 0
  %8 = load ptr, ptr %7, align 8
  store ptr %8, ptr @col_decimal_point, align 8
  %9 = load i32, ptr %4, align 4
  %10 = load ptr, ptr %3, align 8
  %11 = getelementptr inbounds %struct.epan_column_info, ptr %10, i32 0, i32 1
  store i32 %9, ptr %11, align 8
  %12 = load i32, ptr %4, align 4
  %13 = sext i32 %12 to i64
  %14 = call noalias ptr @g_malloc_n(i64 noundef %13, i64 noundef 88) #8
  %15 = load ptr, ptr %3, align 8
  %16 = getelementptr inbounds %struct.epan_column_info, ptr %15, i32 0, i32 2
  store ptr %14, ptr %16, align 8
  %17 = call noalias ptr @g_malloc_n(i64 noundef 46, i64 noundef 4) #8
  %18 = load ptr, ptr %3, align 8
  %19 = getelementptr inbounds %struct.epan_column_info, ptr %18, i32 0, i32 3
  store ptr %17, ptr %19, align 8
  %20 = call noalias ptr @g_malloc_n(i64 noundef 46, i64 noundef 4) #8
  %21 = load ptr, ptr %3, align 8
  %22 = getelementptr inbounds %struct.epan_column_info, ptr %21, i32 0, i32 4
  store ptr %20, ptr %22, align 8
  store i32 0, ptr %5, align 4
  br label %23

23:                                               ; preds = %35, %2
  %24 = load i32, ptr %5, align 4
  %25 = load i32, ptr %4, align 4
  %26 = icmp slt i32 %24, %25
  br i1 %26, label %27, label %38

27:                                               ; preds = %23
  %28 = load ptr, ptr %3, align 8
  %29 = getelementptr inbounds %struct.epan_column_info, ptr %28, i32 0, i32 2
  %30 = load ptr, ptr %29, align 8
  %31 = load i32, ptr %5, align 4
  %32 = sext i32 %31 to i64
  %33 = getelementptr %struct.col_item_t, ptr %30, i64 %32
  %34 = getelementptr inbounds %struct.col_item_t, ptr %33, i32 0, i32 5
  store ptr null, ptr %34, align 8
  br label %35

35:                                               ; preds = %27
  %36 = load i32, ptr %5, align 4
  %37 = add i32 %36, 1
  store i32 %37, ptr %5, align 4
  br label %23, !llvm.loop !4

38:                                               ; preds = %23
  %39 = load i32, ptr %4, align 4
  %40 = add i32 %39, 1
  %41 = sext i32 %40 to i64
  %42 = call noalias ptr @g_malloc_n(i64 noundef %41, i64 noundef 8) #8
  %43 = load ptr, ptr %3, align 8
  %44 = getelementptr inbounds %struct.epan_column_info, ptr %43, i32 0, i32 5
  %45 = getelementptr inbounds %struct.col_expr_t, ptr %44, i32 0, i32 0
  store ptr %42, ptr %45, align 8
  %46 = load i32, ptr %4, align 4
  %47 = add i32 %46, 1
  %48 = sext i32 %47 to i64
  %49 = call noalias ptr @g_malloc_n(i64 noundef %48, i64 noundef 8) #8
  %50 = load ptr, ptr %3, align 8
  %51 = getelementptr inbounds %struct.epan_column_info, ptr %50, i32 0, i32 5
  %52 = getelementptr inbounds %struct.col_expr_t, ptr %51, i32 0, i32 1
  store ptr %49, ptr %52, align 8
  store i32 0, ptr %5, align 4
  br label %53

53:                                               ; preds = %69, %38
  %54 = load i32, ptr %5, align 4
  %55 = icmp slt i32 %54, 46
  br i1 %55, label %56, label %72

56:                                               ; preds = %53
  %57 = load ptr, ptr %3, align 8
  %58 = getelementptr inbounds %struct.epan_column_info, ptr %57, i32 0, i32 3
  %59 = load ptr, ptr %58, align 8
  %60 = load i32, ptr %5, align 4
  %61 = sext i32 %60 to i64
  %62 = getelementptr i32, ptr %59, i64 %61
  store i32 -1, ptr %62, align 4
  %63 = load ptr, ptr %3, align 8
  %64 = getelementptr inbounds %struct.epan_column_info, ptr %63, i32 0, i32 4
  %65 = load ptr, ptr %64, align 8
  %66 = load i32, ptr %5, align 4
  %67 = sext i32 %66 to i64
  %68 = getelementptr i32, ptr %65, i64 %67
  store i32 -1, ptr %68, align 4
  br label %69

69:                                               ; preds = %56
  %70 = load i32, ptr %5, align 4
  %71 = add i32 %70, 1
  store i32 %71, ptr %5, align 4
  br label %53, !llvm.loop !6

72:                                               ; preds = %53
  %73 = call ptr @g_regex_new(ptr noundef @.str, i32 noundef 2048, i32 noundef 0, ptr noundef null)
  %74 = load ptr, ptr %3, align 8
  %75 = getelementptr inbounds %struct.epan_column_info, ptr %74, i32 0, i32 7
  store ptr %73, ptr %75, align 8
  ret void
}