; Function Attrs: nounwind uwtable
define void @col_setup(ptr noundef captures(none) initializes((8, 12), (16, 40)) %0, i32 noundef %1) local_unnamed_addr #0 {
  %3 = tail call ptr @localeconv() #16
  %4 = load ptr, ptr %3, align 8
  store ptr %4, ptr @col_decimal_point, align 8
  %5 = getelementptr inbounds nuw i8, ptr %0, i64 8
  store i32 %1, ptr %5, align 8
  %6 = sext i32 %1 to i64
  %7 = tail call noalias ptr @g_malloc_n(i64 noundef %6, i64 noundef 88) #17
  %8 = getelementptr inbounds nuw i8, ptr %0, i64 16
  store ptr %7, ptr %8, align 8
  %9 = tail call noalias dereferenceable_or_null(184) ptr @g_malloc_n(i64 noundef 46, i64 noundef 4) #17
  %10 = getelementptr inbounds nuw i8, ptr %0, i64 24
  store ptr %9, ptr %10, align 8
  %11 = tail call noalias dereferenceable_or_null(184) ptr @g_malloc_n(i64 noundef 46, i64 noundef 4) #17
  %12 = getelementptr inbounds nuw i8, ptr %0, i64 32
  store ptr %11, ptr %12, align 8
  %13 = icmp sgt i32 %1, 0
  br i1 %13, label %.lr.ph.preheader, label %._crit_edge

.lr.ph.preheader:                                 ; preds = %2
  %wide.trip.count = zext nneg i32 %1 to i64
  br label %.lr.ph

.lr.ph:                                           ; preds = %.lr.ph.preheader, %.lr.ph
  %indvars.iv = phi i64 [ 0, %.lr.ph.preheader ], [ %indvars.iv.next, %.lr.ph ]
  %14 = load ptr, ptr %8, align 8
  %15 = getelementptr %struct.col_item_t, ptr %14, i64 %indvars.iv, i32 5
  store ptr null, ptr %15, align 8
  %indvars.iv.next = add nuw nsw i64 %indvars.iv, 1
  %exitcond.not = icmp eq i64 %indvars.iv.next, %wide.trip.count
  br i1 %exitcond.not, label %._crit_edge, label %.lr.ph, !llvm.loop !4

._crit_edge:                                      ; preds = %.lr.ph, %2
  %16 = add i32 %1, 1
  %17 = sext i32 %16 to i64
  %18 = tail call noalias ptr @g_malloc_n(i64 noundef %17, i64 noundef 8) #17
  %19 = getelementptr inbounds nuw i8, ptr %0, i64 40
  store ptr %18, ptr %19, align 8
  %20 = tail call noalias ptr @g_malloc_n(i64 noundef %17, i64 noundef 8) #17
  %21 = getelementptr inbounds nuw i8, ptr %0, i64 48
  store ptr %20, ptr %21, align 8
  br label %22

22:                                               ; preds = %._crit_edge, %22
  %indvars.iv25 = phi i64 [ 0, %._crit_edge ], [ %indvars.iv.next26, %22 ]
  %23 = load ptr, ptr %10, align 8
  %24 = getelementptr i32, ptr %23, i64 %indvars.iv25
  store i32 -1, ptr %24, align 4
  %25 = load ptr, ptr %12, align 8
  %26 = getelementptr i32, ptr %25, i64 %indvars.iv25
  store i32 -1, ptr %26, align 4
  %indvars.iv.next26 = add nuw nsw i64 %indvars.iv25, 1
  %exitcond28.not = icmp eq i64 %indvars.iv.next26, 46
  br i1 %exitcond28.not, label %27, label %22, !llvm.loop !6

27:                                               ; preds = %22
  %28 = tail call ptr @g_regex_new(ptr noundef nonnull @.str, i32 noundef 2048, i32 noundef 0, ptr noundef null) #16
  %29 = getelementptr inbounds nuw i8, ptr %0, i64 64
  store ptr %28, ptr %29, align 8
  ret void
}